; ModuleID = 'bench/proj/original/lask.cpp.ll'
source_filename = "bench/proj/original/lask.cpp.ll"
target datalayout = "e-m:e-p270:32:32-p271:32:32-p272:64:64-i64:64-i128:128-f80:128-n8:16:32:64-S128"
target triple = "x86_64-pc-linux-gnu"

@_ZL8des_lask = internal constant [28 x i8] c"Laskowski\0A\09Misc Sph, no inv\00", align 16
@pj_s_lask = hidden local_unnamed_addr constant ptr @_ZL8des_lask, align 8
@.str = private unnamed_addr constant [5 x i8] c"lask\00", align 1

; Function Attrs: mustprogress uwtable
define hidden noundef ptr @pj_lask(ptr noundef writeonly %0) local_unnamed_addr #0 {
  %.not = icmp eq ptr %0, null
  br i1 %.not, label %5, label %2

2:                                                ; preds = %1
  %3 = getelementptr inbounds i8, ptr %0, i64 104
  store ptr @_ZL14lask_s_forward5PJ_LPP8PJconsts, ptr %3, align 8
  %4 = getelementptr inbounds i8, ptr %0, i64 216
  store double 0.000000e+00, ptr %4, align 8
  br label %14

5:                                                ; preds = %1
  %6 = tail call noundef ptr @_Z6pj_newv()
  %7 = icmp eq ptr %6, null
  br i1 %7, label %14, label %8

8:                                                ; preds = %5
  %9 = getelementptr inbounds i8, ptr %6, i64 8
  store ptr @.str, ptr %9, align 8
  %10 = getelementptr inbounds i8, ptr %6, i64 16
  store ptr @_ZL8des_lask, ptr %10, align 8
  %11 = getelementptr inbounds i8, ptr %6, i64 360
  store i32 1, ptr %11, align 8
  %12 = getelementptr inbounds i8, ptr %6, i64 380
  store i32 4, ptr %12, align 4
  %13 = getelementptr inbounds i8, ptr %6, i64 384
  store i32 1, ptr %13, align 8
  br label %14

14:                                               ; preds = %5, %8, %2
  %.0 = phi ptr [ %0, %2 ], [ %6, %8 ], [ null, %5 ]
  ret ptr %.0
}

; Function Attrs: mustprogress nofree norecurse nosync nounwind willreturn memory(argmem: write) uwtable
define hidden noundef ptr @_Z33pj_projection_specific_setup_laskP8PJconsts(ptr noundef returned writeonly %0) local_unnamed_addr #1 {
  %2 = getelementptr inbounds i8, ptr %0, i64 104
  store ptr @_ZL14lask_s_forward5PJ_LPP8PJconsts, ptr %2, align 8
  %3 = getelementptr inbounds i8, ptr %0, i64 216
  store double 0.000000e+00, ptr %3, align 8
  ret ptr %0
}

declare noundef ptr @_Z6pj_newv() local_unnamed_addr #2

; Function Attrs: mustprogress nofree norecurse nosync nounwind willreturn memory(none) uwtable
define internal { double, double } @_ZL14lask_s_forward5PJ_LPP8PJconsts(double %0, double %1, ptr nocapture readnone %2) #3 {
  %4 = fmul double %0, %0
  %5 = fmul double %1, %1
  %6 = tail call double @llvm.fmuladd.f64(double %4, double -1.430590e-02, double -1.191610e-01)
  %7 = tail call double @llvm.fmuladd.f64(double %5, double -2.855000e-02, double 0x3FB48DD89B37288B)
  %8 = tail call double @llvm.fmuladd.f64(double %4, double 1.990250e-04, double %7)
  %9 = tail call double @llvm.fmuladd.f64(double %4, double %8, double 1.003840e+00)
  %10 = insertelement <2 x double> poison, double %5, i64 0
  %11 = shufflevector <2 x double> %10, <2 x double> poison, <2 x i32> zeroinitializer
  %12 = insertelement <2 x double> <double poison, double 9.989090e-02>, double %6, i64 0
  %13 = tail call <2 x double> @llvm.fmuladd.v2f64(<2 x double> %11, <2 x double> <double -5.470090e-02, double -4.910320e-02>, <2 x double> %12)
  %14 = insertelement <2 x double> <double 9.755340e-01, double poison>, double %9, i64 1
  %15 = tail call <2 x double> @llvm.fmuladd.v2f64(<2 x double> %11, <2 x double> %13, <2 x double> %14)
  %16 = insertelement <2 x double> poison, double %0, i64 0
  %17 = insertelement <2 x double> %16, double %1, i64 1
  %18 = fmul <2 x double> %15, %17
  %19 = extractelement <2 x double> %18, i64 0
  %.fca.0.insert = insertvalue { double, double } poison, double %19, 0
  %20 = extractelement <2 x double> %18, i64 1
  %.fca.1.insert = insertvalue { double, double } %.fca.0.insert, double %20, 1
  ret { double, double } %.fca.1.insert
}

; Function Attrs: mustprogress nocallback nofree nosync nounwind speculatable willreturn memory(none)
declare double @llvm.fmuladd.f64(double, double, double) #4

; Function Attrs: nocallback nofree nosync nounwind speculatable willreturn memory(none)
declare <2 x double> @llvm.fmuladd.v2f64(<2 x double>, <2 x double>, <2 x double>) #5


!llvm.module.flags = !{!0, !1, !2, !3}

!0 = !{i32 1, !"wchar_size", i32 4}
!1 = !{i32 8, !"PIC Level", i32 2}
!2 = !{i32 7, !"uwtable", i32 2}
!3 = !{i32 7, !"frame-pointer", i32 2}
